; Function Attrs: nounwind uwtable
define ptr @l_Lake_EquipT_instApplicative___rarg___lambda__2(ptr noundef %0, ptr noundef %1, ptr readnone captures(none) %2, ptr readnone captures(none) %3, ptr noundef %4, ptr noundef %5, ptr noundef %6) #0 {
  %8 = getelementptr inbounds nuw i8, ptr %0, i64 8
  %9 = load ptr, ptr %8, align 8, !tbaa !10
  %10 = ptrtoint ptr %9 to i64
  %11 = and i64 %10, 1
  %.not = icmp eq i64 %11, 0
  br i1 %.not, label %12, label %lean_inc.exit17

12:                                               ; preds = %7
  %.val.i = load i32, ptr %9, align 4, !tbaa !4
  %13 = icmp sgt i32 %.val.i, 0
  br i1 %13, label %14, label %16, !prof !9

14:                                               ; preds = %12
  %15 = add nuw i32 %.val.i, 1
  store i32 %15, ptr %9, align 4, !tbaa !4
  br label %lean_inc.exit17

16:                                               ; preds = %12
  %.not.i18 = icmp eq i32 %.val.i, 0
  br i1 %.not.i18, label %lean_inc.exit17, label %17

17:                                               ; preds = %16
  tail call void @lean_inc_ref_cold(ptr noundef nonnull %9) #4
  br label %lean_inc.exit17

lean_inc.exit17:                                  ; preds = %17, %16, %14, %7
  %18 = ptrtoint ptr %0 to i64
  %19 = and i64 %18, 1
  %.not22 = icmp eq i64 %19, 0
  br i1 %.not22, label %20, label %lean_dec.exit

20:                                               ; preds = %lean_inc.exit17
  %21 = load i32, ptr %0, align 4, !tbaa !4
  %22 = icmp sgt i32 %21, 1
  br i1 %22, label %23, label %25, !prof !9

23:                                               ; preds = %20
  %24 = add nsw i32 %21, -1
  store i32 %24, ptr %0, align 4, !tbaa !4
  br label %lean_dec.exit

25:                                               ; preds = %20
  %.not.i = icmp eq i32 %21, 0
  br i1 %.not.i, label %lean_dec.exit, label %26

26:                                               ; preds = %25
  tail call void @lean_dec_ref_cold(ptr noundef nonnull %0) #4
  br label %lean_dec.exit

lean_dec.exit:                                    ; preds = %26, %25, %23, %lean_inc.exit17
  %27 = ptrtoint ptr %6 to i64
  %28 = and i64 %27, 1
  %.not23 = icmp eq i64 %28, 0
  br i1 %.not23, label %29, label %lean_inc.exit

29:                                               ; preds = %lean_dec.exit
  %.val.i19 = load i32, ptr %6, align 4, !tbaa !4
  %30 = icmp sgt i32 %.val.i19, 0
  br i1 %30, label %31, label %33, !prof !9

31:                                               ; preds = %29
  %32 = add nuw i32 %.val.i19, 1
  store i32 %32, ptr %6, align 4, !tbaa !4
  br label %lean_inc.exit

33:                                               ; preds = %29
  %.not.i20 = icmp eq i32 %.val.i19, 0
  br i1 %.not.i20, label %lean_inc.exit, label %34

34:                                               ; preds = %33
  tail call void @lean_inc_ref_cold(ptr noundef nonnull %6) #4
  br label %lean_inc.exit

lean_inc.exit:                                    ; preds = %34, %33, %31, %lean_dec.exit
  %35 = tail call ptr @lean_apply_1(ptr noundef %4, ptr noundef %6) #4
  %36 = load ptr, ptr @l_Lake_EquipT_instApplicative___rarg___lambda__2___closed__2, align 8, !tbaa !10
  %37 = tail call ptr @lean_apply_4(ptr noundef %9, ptr noundef nonnull inttoptr (i64 1 to ptr), ptr noundef nonnull inttoptr (i64 1 to ptr), ptr noundef %36, ptr noundef %35) #4
  tail call void @lean_inc_heartbeat() #4
  %38 = tail call noalias ptr @mi_malloc_small(i64 noundef 40) #4
  %39 = icmp eq ptr %38, null
  br i1 %39, label %40, label %lean_alloc_closure.exit

40:                                               ; preds = %lean_inc.exit
  tail call void @lean_internal_panic_out_of_memory() #5
  unreachable

lean_alloc_closure.exit:                          ; preds = %lean_inc.exit
  %41 = getelementptr inbounds nuw i8, ptr %38, i64 4
  store i32 1, ptr %38, align 4, !tbaa !4
  store i32 -184549336, ptr %41, align 4
  %42 = getelementptr inbounds nuw i8, ptr %38, i64 8
  store ptr @l_Lake_EquipT_compose___rarg___lambda__1___boxed, ptr %42, align 8, !tbaa !10
  %43 = getelementptr inbounds nuw i8, ptr %38, i64 16
  store i16 3, ptr %43, align 8, !tbaa !12
  %44 = getelementptr inbounds nuw i8, ptr %38, i64 18
  store i16 2, ptr %44, align 2, !tbaa !12
  %45 = getelementptr inbounds nuw i8, ptr %38, i64 24
  store ptr %5, ptr %45, align 8, !tbaa !10
  %46 = getelementptr inbounds nuw i8, ptr %38, i64 32
  store ptr %6, ptr %46, align 8, !tbaa !10
  %47 = tail call ptr @lean_apply_4(ptr noundef %1, ptr noundef nonnull inttoptr (i64 1 to ptr), ptr noundef nonnull inttoptr (i64 1 to ptr), ptr noundef %37, ptr noundef nonnull %38) #4
  ret ptr %47
}